target datalayout = "e-m:e-p270:32:32-p271:32:32-p272:64:64-i64:64-i128:128-f80:128-n8:16:32:64-S128"
target triple = "x86_64-pc-linux-gnu"

; Function Attrs: inlinehint nounwind sspstrong uwtable
define internal i32 @issign(i32 noundef %0) #3 {
  %2 = alloca i32, align 4
  store i32 %0, ptr %2, align 4, !tbaa !14
  %3 = load i32, ptr %2, align 4, !tbaa !14
  %4 = icmp eq i32 %3, 45
  br i1 %4, label %8, label %5

5:                                                ; preds = %1
  %6 = load i32, ptr %2, align 4, !tbaa !14
  %7 = icmp eq i32 %6, 43
  br label %8

8:                                                ; preds = %5, %1
  %9 = phi i1 [ true, %1 ], [ %7, %5 ]
  %10 = zext i1 %9 to i32
  ret i32 %10
}

; Function Attrs: inlinehint nounwind sspstrong willreturn memory(none) uwtable
define internal i64 @RB_INT2FIX(i64 noundef %0) #8 {
  %2 = alloca i64, align 8
  %3 = alloca i64, align 8
  %4 = alloca i64, align 8
  %5 = alloca i64, align 8
  %6 = alloca i64, align 8
  %7 = alloca i64, align 8
  store i64 %0, ptr %2, align 8, !tbaa !7
  call void @llvm.lifetime.start.p0(i64 8, ptr %3) #21
  %8 = load i64, ptr %2, align 8, !tbaa !7
  store i64 %8, ptr %3, align 8, !tbaa !7
  call void @llvm.lifetime.start.p0(i64 8, ptr %4) #21
  %9 = load i64, ptr %3, align 8, !tbaa !7
  %10 = shl i64 %9, 1
  %11 = add i64 %10, 1
  store i64 %11, ptr %4, align 8, !tbaa !7
  call void @llvm.lifetime.start.p0(i64 8, ptr %5) #21
  %12 = load i64, ptr %4, align 8, !tbaa !7
  store i64 %12, ptr %5, align 8, !tbaa !7
  call void @llvm.lifetime.start.p0(i64 8, ptr %6) #21
  %13 = load i64, ptr %5, align 8, !tbaa !7
  store i64 %13, ptr %6, align 8, !tbaa !7
  call void @llvm.lifetime.start.p0(i64 8, ptr %7) #21
  %14 = load i64, ptr %6, align 8, !tbaa !7
  store i64 %14, ptr %7, align 8, !tbaa !7
  %15 = load i64, ptr %7, align 8, !tbaa !7
  call void @llvm.lifetime.end.p0(i64 8, ptr %7) #21
  call void @llvm.lifetime.end.p0(i64 8, ptr %6) #21
  call void @llvm.lifetime.end.p0(i64 8, ptr %5) #21
  call void @llvm.lifetime.end.p0(i64 8, ptr %4) #21
  call void @llvm.lifetime.end.p0(i64 8, ptr %3) #21
  ret i64 %15
}

; Function Attrs: nounwind sspstrong uwtable
define internal i32 @read_sign(ptr noundef %0, ptr noundef %1) #0 {
  %3 = alloca ptr, align 8
  %4 = alloca ptr, align 8
  %5 = alloca i32, align 4
  store ptr %0, ptr %3, align 8, !tbaa !59
  store ptr %1, ptr %4, align 8, !tbaa !36
  call void @llvm.lifetime.start.p0(i64 4, ptr %5) #21
  store i32 63, ptr %5, align 4, !tbaa !14
  %6 = load ptr, ptr %3, align 8, !tbaa !59
  %7 = load ptr, ptr %6, align 8, !tbaa !36
  %8 = load ptr, ptr %4, align 8, !tbaa !36
  %9 = icmp ult ptr %7, %8
  br i1 %9, label %10, label %25

10:                                               ; preds = %2
  %11 = load ptr, ptr %3, align 8, !tbaa !59
  %12 = load ptr, ptr %11, align 8, !tbaa !36
  %13 = load i8, ptr %12, align 1, !tbaa !11
  %14 = sext i8 %13 to i32
  %15 = call i32 @issign(i32 noundef %14)
  %16 = icmp ne i32 %15, 0
  br i1 %16, label %17, label %25

17:                                               ; preds = %10
  %18 = load ptr, ptr %3, align 8, !tbaa !59
  %19 = load ptr, ptr %18, align 8, !tbaa !36
  %20 = load i8, ptr %19, align 1, !tbaa !11
  %21 = sext i8 %20 to i32
  store i32 %21, ptr %5, align 4, !tbaa !14
  %22 = load ptr, ptr %3, align 8, !tbaa !59
  %23 = load ptr, ptr %22, align 8, !tbaa !36
  %24 = getelementptr i8, ptr %23, i32 1
  store ptr %24, ptr %22, align 8, !tbaa !36
  br label %25

25:                                               ; preds = %17, %10, %2
  %26 = load i32, ptr %5, align 4, !tbaa !14
  call void @llvm.lifetime.end.p0(i64 4, ptr %5) #21
  ret i32 %26
}

; Function Attrs: inlinehint nounwind sspstrong uwtable
define internal i32 @islettere(i32 noundef %0) #3 {
  %2 = alloca i32, align 4
  store i32 %0, ptr %2, align 4, !tbaa !14
  %3 = load i32, ptr %2, align 4, !tbaa !14
  %4 = icmp eq i32 %3, 101
  br i1 %4, label %8, label %5

5:                                                ; preds = %1
  %6 = load i32, ptr %2, align 4, !tbaa !14
  %7 = icmp eq i32 %6, 69
  br label %8

8:                                                ; preds = %5, %1
  %9 = phi i1 [ true, %1 ], [ %7, %5 ]
  %10 = zext i1 %9 to i32
  ret i32 %10
}

; Function Attrs: inlinehint nounwind sspstrong uwtable
define internal i64 @rb_ull2num_inline(i64 noundef %0) #3 {
  %2 = alloca i64, align 8
  %3 = alloca i64, align 8
  store i64 %0, ptr %3, align 8, !tbaa !61
  %4 = load i64, ptr %3, align 8, !tbaa !61
  %5 = icmp ult i64 %4, 4611686018427387904
  br i1 %5, label %6, label %9

6:                                                ; preds = %1
  %7 = load i64, ptr %3, align 8, !tbaa !61
  %8 = call i64 @RB_INT2FIX(i64 noundef %7) #23
  store i64 %8, ptr %2, align 8
  br label %12

9:                                                ; preds = %1
  %10 = load i64, ptr %3, align 8, !tbaa !61
  %11 = call i64 @rb_ull2inum(i64 noundef %10)
  store i64 %11, ptr %2, align 8
  br label %12

12:                                               ; preds = %9, %6
  %13 = load i64, ptr %2, align 8
  ret i64 %13
}

; Function Attrs: inlinehint nounwind sspstrong willreturn memory(none) uwtable
define internal zeroext i1 @RB_NIL_P(i64 noundef %0) #8 {
  %2 = alloca i64, align 8
  store i64 %0, ptr %2, align 8, !tbaa !7
  %3 = load i64, ptr %2, align 8, !tbaa !7
  %4 = icmp eq i64 %3, 4
  ret i1 %4
}

; Function Attrs: nounwind sspstrong uwtable
define internal i32 @read_num(ptr noundef %0, ptr noundef %1, ptr noundef %2, ptr noundef %3) #0 {
  %5 = alloca i32, align 4
  %6 = alloca ptr, align 8
  %7 = alloca ptr, align 8
  %8 = alloca ptr, align 8
  %9 = alloca ptr, align 8
  %10 = alloca i64, align 8
  %11 = alloca i64, align 8
  %12 = alloca i64, align 8
  %13 = alloca i64, align 8
  %14 = alloca i32, align 4
  %15 = alloca i32, align 4
  %16 = alloca ptr, align 8
  %17 = alloca i32, align 4
  %18 = alloca i64, align 8
  %19 = alloca i64, align 8
  store ptr %0, ptr %6, align 8, !tbaa !59
  store ptr %1, ptr %7, align 8, !tbaa !36
  store ptr %2, ptr %8, align 8, !tbaa !28
  store ptr %3, ptr %9, align 8, !tbaa !28
  call void @llvm.lifetime.start.p0(i64 8, ptr %10) #21
  store i64 3, ptr %10, align 8, !tbaa !7
  call void @llvm.lifetime.start.p0(i64 8, ptr %11) #21
  call void @llvm.lifetime.start.p0(i64 8, ptr %12) #21
  store i64 1, ptr %12, align 8, !tbaa !7
  call void @llvm.lifetime.start.p0(i64 8, ptr %13) #21
  store i64 1, ptr %13, align 8, !tbaa !7
  call void @llvm.lifetime.start.p0(i64 4, ptr %14) #21
  store i32 0, ptr %14, align 4, !tbaa !14
  call void @llvm.lifetime.start.p0(i64 4, ptr %15) #21
  store i32 0, ptr %15, align 4, !tbaa !14
  call void @llvm.lifetime.start.p0(i64 8, ptr %16) #21
  %20 = load ptr, ptr %9, align 8, !tbaa !28
  store i64 1, ptr %20, align 8, !tbaa !7
  %21 = load ptr, ptr %8, align 8, !tbaa !28
  store i64 1, ptr %21, align 8, !tbaa !7
  %22 = load ptr, ptr %6, align 8, !tbaa !59
  %23 = load ptr, ptr %22, align 8, !tbaa !36
  %24 = load ptr, ptr %7, align 8, !tbaa !36
  %25 = icmp ult ptr %23, %24
  br i1 %25, label %26, label %50

26:                                               ; preds = %4
  %27 = load ptr, ptr %6, align 8, !tbaa !59
  %28 = load ptr, ptr %27, align 8, !tbaa !36
  %29 = load i8, ptr %28, align 1, !tbaa !11
  %30 = sext i8 %29 to i32
  %31 = icmp ne i32 %30, 46
  br i1 %31, label %32, label %50

32:                                               ; preds = %26
  %33 = load ptr, ptr %6, align 8, !tbaa !59
  %34 = load ptr, ptr %33, align 8, !tbaa !36
  %35 = load ptr, ptr %7, align 8, !tbaa !36
  %36 = load ptr, ptr %6, align 8, !tbaa !59
  %37 = load ptr, ptr %36, align 8, !tbaa !36
  %38 = ptrtoint ptr %35 to i64
  %39 = ptrtoint ptr %37 to i64
  %40 = sub i64 %38, %39
  %41 = call i64 @rb_int_parse_cstr(ptr noundef %34, i64 noundef %40, ptr noundef %16, ptr noundef null, i32 noundef 10, i32 noundef 2)
  store i64 %41, ptr %13, align 8, !tbaa !7
  %42 = load i64, ptr %13, align 8, !tbaa !7
  %43 = call zeroext i1 @RB_NIL_P(i64 noundef %42) #23
  br i1 %43, label %44, label %45

44:                                               ; preds = %32
  store i32 0, ptr %5, align 4
  store i32 1, ptr %17, align 4
  br label %171

45:                                               ; preds = %32
  %46 = load ptr, ptr %16, align 8, !tbaa !36
  %47 = load ptr, ptr %6, align 8, !tbaa !59
  store ptr %46, ptr %47, align 8, !tbaa !36
  %48 = load i64, ptr %13, align 8, !tbaa !7
  %49 = load ptr, ptr %8, align 8, !tbaa !28
  store i64 %48, ptr %49, align 8, !tbaa !7
  store i32 1, ptr %15, align 4, !tbaa !14
  br label %50

50:                                               ; preds = %45, %26, %4
  %51 = load ptr, ptr %6, align 8, !tbaa !59
  %52 = load ptr, ptr %51, align 8, !tbaa !36
  %53 = load ptr, ptr %7, align 8, !tbaa !36
  %54 = icmp ult ptr %52, %53
  br i1 %54, label %55, label %104

55:                                               ; preds = %50
  %56 = load ptr, ptr %6, align 8, !tbaa !59
  %57 = load ptr, ptr %56, align 8, !tbaa !36
  %58 = load i8, ptr %57, align 1, !tbaa !11
  %59 = sext i8 %58 to i32
  %60 = icmp eq i32 %59, 46
  br i1 %60, label %61, label %104

61:                                               ; preds = %55
  call void @llvm.lifetime.start.p0(i64 8, ptr %18) #21
  store i64 0, ptr %18, align 8, !tbaa !7
  %62 = load ptr, ptr %6, align 8, !tbaa !59
  %63 = load ptr, ptr %62, align 8, !tbaa !36
  %64 = getelementptr i8, ptr %63, i32 1
  store ptr %64, ptr %62, align 8, !tbaa !36
  %65 = load ptr, ptr %6, align 8, !tbaa !59
  %66 = load ptr, ptr %65, align 8, !tbaa !36
  %67 = load ptr, ptr %7, align 8, !tbaa !36
  %68 = load ptr, ptr %6, align 8, !tbaa !59
  %69 = load ptr, ptr %68, align 8, !tbaa !36
  %70 = ptrtoint ptr %67 to i64
  %71 = ptrtoint ptr %69 to i64
  %72 = sub i64 %70, %71
  %73 = call i64 @rb_int_parse_cstr(ptr noundef %66, i64 noundef %72, ptr noundef %16, ptr noundef %18, i32 noundef 10, i32 noundef 2)
  store i64 %73, ptr %10, align 8, !tbaa !7
  %74 = load i64, ptr %10, align 8, !tbaa !7
  %75 = call zeroext i1 @RB_NIL_P(i64 noundef %74) #23
  br i1 %75, label %76, label %77

76:                                               ; preds = %61
  store i32 1, ptr %5, align 4
  store i32 1, ptr %17, align 4
  br label %101

77:                                               ; preds = %61
  %78 = load ptr, ptr %16, align 8, !tbaa !36
  %79 = load ptr, ptr %6, align 8, !tbaa !59
  store ptr %78, ptr %79, align 8, !tbaa !36
  call void @llvm.lifetime.start.p0(i64 8, ptr %19) #21
  %80 = load i64, ptr %18, align 8, !tbaa !7
  %81 = call i64 @rb_ull2num_inline(i64 noundef %80)
  %82 = load ptr, ptr %9, align 8, !tbaa !28
  store i64 %81, ptr %82, align 8, !tbaa !7
  %83 = call i64 @rb_int_pow(i64 noundef 21, i64 noundef %81)
  store i64 %83, ptr %19, align 8, !tbaa !7
  %84 = load i64, ptr %13, align 8, !tbaa !7
  %85 = icmp eq i64 %84, 1
  br i1 %85, label %86, label %88

86:                                               ; preds = %77
  %87 = load i64, ptr %10, align 8, !tbaa !7
  br label %95

88:                                               ; preds = %77
  %89 = load ptr, ptr %8, align 8, !tbaa !28
  %90 = load i64, ptr %89, align 8, !tbaa !7
  %91 = load i64, ptr %19, align 8, !tbaa !7
  %92 = call i64 @rb_int_mul(i64 noundef %90, i64 noundef %91)
  %93 = load i64, ptr %10, align 8, !tbaa !7
  %94 = call i64 @rb_int_plus(i64 noundef %92, i64 noundef %93)
  br label %95

95:                                               ; preds = %88, %86
  %96 = phi i64 [ %87, %86 ], [ %94, %88 ]
  store i64 %96, ptr %13, align 8, !tbaa !7
  %97 = load i64, ptr %13, align 8, !tbaa !7
  %98 = load ptr, ptr %8, align 8, !tbaa !28
  store i64 %97, ptr %98, align 8, !tbaa !7
  %99 = load i64, ptr %18, align 8, !tbaa !7
  %100 = call i64 @rb_ull2num_inline(i64 noundef %99)
  store i64 %100, ptr %12, align 8, !tbaa !7
  call void @llvm.lifetime.end.p0(i64 8, ptr %19) #21
  store i32 1, ptr %15, align 4, !tbaa !14
  store i32 0, ptr %17, align 4
  br label %101

101:                                              ; preds = %95, %76
  call void @llvm.lifetime.end.p0(i64 8, ptr %18) #21
  %102 = load i32, ptr %17, align 4
  switch i32 %102, label %171 [
    i32 0, label %103
  ]

103:                                              ; preds = %101
  br label %104

104:                                              ; preds = %103, %55, %50
  %105 = load i32, ptr %15, align 4, !tbaa !14
  %106 = icmp ne i32 %105, 0
  br i1 %106, label %107, label %169

107:                                              ; preds = %104
  %108 = load ptr, ptr %6, align 8, !tbaa !59
  %109 = load ptr, ptr %108, align 8, !tbaa !36
  %110 = getelementptr i8, ptr %109, i64 1
  %111 = load ptr, ptr %7, align 8, !tbaa !36
  %112 = icmp ult ptr %110, %111
  br i1 %112, label %113, label %169

113:                                              ; preds = %107
  %114 = load ptr, ptr %6, align 8, !tbaa !59
  %115 = load ptr, ptr %114, align 8, !tbaa !36
  %116 = load i8, ptr %115, align 1, !tbaa !11
  %117 = sext i8 %116 to i32
  %118 = call i32 @islettere(i32 noundef %117)
  %119 = icmp ne i32 %118, 0
  br i1 %119, label %120, label %169

120:                                              ; preds = %113
  %121 = load ptr, ptr %6, align 8, !tbaa !59
  %122 = load ptr, ptr %121, align 8, !tbaa !36
  %123 = getelementptr i8, ptr %122, i32 1
  store ptr %123, ptr %121, align 8, !tbaa !36
  %124 = load ptr, ptr %6, align 8, !tbaa !59
  %125 = load ptr, ptr %7, align 8, !tbaa !36
  %126 = call i32 @read_sign(ptr noundef %124, ptr noundef %125)
  store i32 %126, ptr %14, align 4, !tbaa !14
  %127 = load ptr, ptr %6, align 8, !tbaa !59
  %128 = load ptr, ptr %127, align 8, !tbaa !36
  %129 = load ptr, ptr %7, align 8, !tbaa !36
  %130 = load ptr, ptr %6, align 8, !tbaa !59
  %131 = load ptr, ptr %130, align 8, !tbaa !36
  %132 = ptrtoint ptr %129 to i64
  %133 = ptrtoint ptr %131 to i64
  %134 = sub i64 %132, %133
  %135 = call i64 @rb_int_parse_cstr(ptr noundef %128, i64 noundef %134, ptr noundef %16, ptr noundef null, i32 noundef 10, i32 noundef 2)
  store i64 %135, ptr %11, align 8, !tbaa !7
  %136 = load i64, ptr %11, align 8, !tbaa !7
  %137 = call zeroext i1 @RB_NIL_P(i64 noundef %136) #23
  br i1 %137, label %138, label %139

138:                                              ; preds = %120
  store i32 1, ptr %5, align 4
  store i32 1, ptr %17, align 4
  br label %171

139:                                              ; preds = %120
  %140 = load ptr, ptr %16, align 8, !tbaa !36
  %141 = load ptr, ptr %6, align 8, !tbaa !59
  store ptr %140, ptr %141, align 8, !tbaa !36
  %142 = load i64, ptr %11, align 8, !tbaa !7
  %143 = icmp ne i64 %142, 1
  br i1 %143, label %144, label %168

144:                                              ; preds = %139
  %145 = load i32, ptr %14, align 4, !tbaa !14
  %146 = icmp eq i32 %145, 45
  br i1 %146, label %147, label %155

147:                                              ; preds = %144
  %148 = load i64, ptr %12, align 8, !tbaa !7
  %149 = icmp ne i64 %148, 1
  br i1 %149, label %150, label %154

150:                                              ; preds = %147
  %151 = load i64, ptr %11, align 8, !tbaa !7
  %152 = load i64, ptr %12, align 8, !tbaa !7
  %153 = call i64 @rb_int_plus(i64 noundef %151, i64 noundef %152)
  store i64 %153, ptr %11, align 8, !tbaa !7
  br label %154

154:                                              ; preds = %150, %147
  br label %165

155:                                              ; preds = %144
  %156 = load i64, ptr %12, align 8, !tbaa !7
  %157 = icmp ne i64 %156, 1
  br i1 %157, label %158, label %162

158:                                              ; preds = %155
  %159 = load i64, ptr %11, align 8, !tbaa !7
  %160 = load i64, ptr %12, align 8, !tbaa !7
  %161 = call i64 @rb_int_minus(i64 noundef %159, i64 noundef %160)
  store i64 %161, ptr %11, align 8, !tbaa !7
  br label %162

162:                                              ; preds = %158, %155
  %163 = load i64, ptr %11, align 8, !tbaa !7
  %164 = call i64 @negate_num(i64 noundef %163)
  store i64 %164, ptr %11, align 8, !tbaa !7
  br label %165

165:                                              ; preds = %162, %154
  %166 = load i64, ptr %11, align 8, !tbaa !7
  %167 = load ptr, ptr %9, align 8, !tbaa !28
  store i64 %166, ptr %167, align 8, !tbaa !7
  br label %168

168:                                              ; preds = %165, %139
  br label %169

169:                                              ; preds = %168, %113, %107, %104
  %170 = load i32, ptr %15, align 4, !tbaa !14
  store i32 %170, ptr %5, align 4
  store i32 1, ptr %17, align 4
  br label %171

171:                                              ; preds = %169, %138, %101, %44
  call void @llvm.lifetime.end.p0(i64 8, ptr %16) #21
  call void @llvm.lifetime.end.p0(i64 4, ptr %15) #21
  call void @llvm.lifetime.end.p0(i64 4, ptr %14) #21
  call void @llvm.lifetime.end.p0(i64 8, ptr %13) #21
  call void @llvm.lifetime.end.p0(i64 8, ptr %12) #21
  call void @llvm.lifetime.end.p0(i64 8, ptr %11) #21
  call void @llvm.lifetime.end.p0(i64 8, ptr %10) #21
  %172 = load i32, ptr %5, align 4
  ret i32 %172
}