; Function Attrs: nounwind sspstrong uwtable
define internal fastcc range(i32 0, 2) i32 @read_num(ptr noundef nonnull captures(none) %0, ptr noundef %1, ptr noundef nonnull captures(none) initializes((0, 8)) %2, ptr noundef nonnull writeonly captures(none) initializes((0, 8)) %3) unnamed_addr #0 {
  %5 = alloca ptr, align 8
  %6 = alloca i64, align 8
  call void @llvm.lifetime.start.p0(i64 8, ptr nonnull %5) #17
  store i64 1, ptr %3, align 8, !tbaa !18
  store i64 1, ptr %2, align 8, !tbaa !18
  %7 = load ptr, ptr %0, align 8, !tbaa !39
  %8 = icmp ult ptr %7, %1
  br i1 %8, label %9, label %20

9:                                                ; preds = %4
  %10 = load i8, ptr %7, align 1, !tbaa !12
  %.not = icmp eq i8 %10, 46
  br i1 %.not, label %20, label %11

11:                                               ; preds = %9
  %12 = ptrtoint ptr %1 to i64
  %13 = ptrtoint ptr %7 to i64
  %14 = sub i64 %12, %13
  %15 = call i64 @rb_int_parse_cstr(ptr noundef nonnull %7, i64 noundef %14, ptr noundef nonnull %5, ptr noundef null, i32 noundef 10, i32 noundef 2) #17
  %16 = icmp eq i64 %15, 4
  br i1 %16, label %87, label %17

17:                                               ; preds = %11
  %18 = load ptr, ptr %5, align 8, !tbaa !39
  store ptr %18, ptr %0, align 8, !tbaa !39
  store i64 %15, ptr %2, align 8, !tbaa !18
  %19 = icmp eq i64 %15, 1
  br label %20

20:                                               ; preds = %17, %9, %4
  %21 = phi ptr [ %18, %17 ], [ %7, %9 ], [ %7, %4 ]
  %.057 = phi i1 [ %19, %17 ], [ true, %9 ], [ true, %4 ]
  %.not67 = phi i1 [ false, %17 ], [ true, %9 ], [ true, %4 ]
  %22 = icmp ult ptr %21, %1
  br i1 %22, label %23, label %56

23:                                               ; preds = %20
  %24 = load i8, ptr %21, align 1, !tbaa !12
  %25 = icmp eq i8 %24, 46
  br i1 %25, label %26, label %56

26:                                               ; preds = %23
  call void @llvm.lifetime.start.p0(i64 8, ptr nonnull %6) #17
  store i64 0, ptr %6, align 8, !tbaa !18
  %27 = getelementptr i8, ptr %21, i64 1
  store ptr %27, ptr %0, align 8, !tbaa !39
  %28 = ptrtoint ptr %1 to i64
  %29 = ptrtoint ptr %27 to i64
  %30 = sub i64 %28, %29
  %31 = call i64 @rb_int_parse_cstr(ptr noundef %27, i64 noundef %30, ptr noundef nonnull %5, ptr noundef nonnull %6, i32 noundef 10, i32 noundef 2) #17
  %32 = icmp eq i64 %31, 4
  br i1 %32, label %rb_ull2num_inline.exit73, label %33

33:                                               ; preds = %26
  %34 = load ptr, ptr %5, align 8, !tbaa !39
  store ptr %34, ptr %0, align 8, !tbaa !39
  %35 = load i64, ptr %6, align 8, !tbaa !18
  %36 = icmp ult i64 %35, 4611686018427387904
  br i1 %36, label %37, label %40

37:                                               ; preds = %33
  %38 = shl nuw nsw i64 %35, 1
  %39 = or disjoint i64 %38, 1
  br label %rb_ull2num_inline.exit

40:                                               ; preds = %33
  %41 = call i64 @rb_ull2inum(i64 noundef %35) #17
  br label %rb_ull2num_inline.exit

rb_ull2num_inline.exit:                           ; preds = %37, %40
  %.0.i = phi i64 [ %39, %37 ], [ %41, %40 ]
  store i64 %.0.i, ptr %3, align 8, !tbaa !18
  %42 = call i64 @rb_int_pow(i64 noundef 21, i64 noundef %.0.i) #17
  br i1 %.057, label %47, label %43

43:                                               ; preds = %rb_ull2num_inline.exit
  %44 = load i64, ptr %2, align 8, !tbaa !18
  %45 = call i64 @rb_int_mul(i64 noundef %44, i64 noundef %42) #17
  %46 = call i64 @rb_int_plus(i64 noundef %45, i64 noundef %31) #17
  br label %47

47:                                               ; preds = %rb_ull2num_inline.exit, %43
  %48 = phi i64 [ %46, %43 ], [ %31, %rb_ull2num_inline.exit ]
  store i64 %48, ptr %2, align 8, !tbaa !18
  %49 = load i64, ptr %6, align 8, !tbaa !18
  %50 = icmp ult i64 %49, 4611686018427387904
  br i1 %50, label %51, label %54

51:                                               ; preds = %47
  %52 = shl nuw nsw i64 %49, 1
  %53 = or disjoint i64 %52, 1
  br label %.thread

54:                                               ; preds = %47
  %55 = call i64 @rb_ull2inum(i64 noundef %49) #17
  br label %.thread

.thread:                                          ; preds = %51, %54
  %.159.ph = phi i64 [ %55, %54 ], [ %53, %51 ]
  call void @llvm.lifetime.end.p0(i64 8, ptr nonnull %6) #17
  %.pre = load ptr, ptr %0, align 8, !tbaa !39
  br label %57

rb_ull2num_inline.exit73:                         ; preds = %26
  call void @llvm.lifetime.end.p0(i64 8, ptr nonnull %6) #17
  br label %87

56:                                               ; preds = %23, %20
  br i1 %.not67, label %87, label %57

57:                                               ; preds = %.thread, %56
  %58 = phi ptr [ %.pre, %.thread ], [ %21, %56 ]
  %.05880 = phi i64 [ %.159.ph, %.thread ], [ 1, %56 ]
  %59 = getelementptr i8, ptr %58, i64 1
  %60 = icmp ult ptr %59, %1
  br i1 %60, label %61, label %87

61:                                               ; preds = %57
  %62 = load i8, ptr %58, align 1, !tbaa !12
  %63 = and i8 %62, -33
  %.not82 = icmp eq i8 %63, 69
  br i1 %.not82, label %64, label %87

64:                                               ; preds = %61
  store ptr %59, ptr %0, align 8, !tbaa !39
  %65 = load i8, ptr %59, align 1, !tbaa !12
  switch i8 %65, label %read_sign.exit [
    i8 45, label %66
    i8 43, label %66
  ]

66:                                               ; preds = %64, %64
  %67 = getelementptr i8, ptr %58, i64 2
  store ptr %67, ptr %0, align 8, !tbaa !39
  %68 = icmp eq i8 %65, 45
  br label %read_sign.exit

read_sign.exit:                                   ; preds = %64, %66
  %69 = phi ptr [ %67, %66 ], [ %59, %64 ]
  %.0.i74 = phi i1 [ %68, %66 ], [ false, %64 ]
  %70 = ptrtoint ptr %1 to i64
  %71 = ptrtoint ptr %69 to i64
  %72 = sub i64 %70, %71
  %73 = call i64 @rb_int_parse_cstr(ptr noundef %69, i64 noundef %72, ptr noundef nonnull %5, ptr noundef null, i32 noundef 10, i32 noundef 2) #17
  %74 = icmp eq i64 %73, 4
  br i1 %74, label %87, label %75

75:                                               ; preds = %read_sign.exit
  %76 = load ptr, ptr %5, align 8, !tbaa !39
  store ptr %76, ptr %0, align 8, !tbaa !39
  %.not69 = icmp eq i64 %73, 1
  br i1 %.not69, label %87, label %77

77:                                               ; preds = %75
  %.not71 = icmp eq i64 %.05880, 1
  br i1 %.0.i74, label %78, label %81

78:                                               ; preds = %77
  br i1 %.not71, label %86, label %79

79:                                               ; preds = %78
  %80 = call i64 @rb_int_plus(i64 noundef %73, i64 noundef %.05880) #17
  br label %86

81:                                               ; preds = %77
  br i1 %.not71, label %84, label %82

82:                                               ; preds = %81
  %83 = call i64 @rb_int_minus(i64 noundef %73, i64 noundef %.05880) #17
  br label %84

84:                                               ; preds = %82, %81
  %.161 = phi i64 [ %83, %82 ], [ %73, %81 ]
  %85 = call fastcc i64 @negate_num(i64 noundef %.161)
  br label %86

86:                                               ; preds = %78, %79, %84
  %.060 = phi i64 [ %80, %79 ], [ %73, %78 ], [ %85, %84 ]
  store i64 %.060, ptr %3, align 8, !tbaa !18
  br label %87

87:                                               ; preds = %rb_ull2num_inline.exit73, %56, %57, %61, %86, %75, %read_sign.exit, %11
  %.0 = phi i32 [ 1, %rb_ull2num_inline.exit73 ], [ 0, %11 ], [ 1, %read_sign.exit ], [ 1, %75 ], [ 1, %86 ], [ 1, %61 ], [ 1, %57 ], [ 0, %56 ]
  call void @llvm.lifetime.end.p0(i64 8, ptr nonnull %5) #17
  ret i32 %.0
}